; Function Attrs: inlinehint mustprogress nofree norecurse nosync nounwind willreturn memory(read, argmem: readwrite, inaccessiblemem: none) uwtable
define internal fastcc range(i32 0, 256) i32 @get_ue_golomb_31(ptr noundef captures(none) %0) unnamed_addr #4 {
  %2 = getelementptr inbounds nuw i8, ptr %0, i64 16
  %3 = load i32, ptr %2, align 8, !tbaa !28
  %4 = getelementptr inbounds nuw i8, ptr %0, i64 24
  %5 = load i32, ptr %4, align 8, !tbaa !29
  %6 = load ptr, ptr %0, align 8, !tbaa !19
  %7 = lshr i32 %3, 3
  %8 = zext nneg i32 %7 to i64
  %9 = getelementptr inbounds nuw i8, ptr %6, i64 %8
  %10 = load i32, ptr %9, align 1, !tbaa !27
  %11 = tail call i32 @llvm.bswap.i32(i32 %10)
  %12 = and i32 %3, 7
  %13 = shl i32 %11, %12
  %14 = lshr i32 %13, 23
  %15 = zext nneg i32 %14 to i64
  %16 = getelementptr inbounds nuw [512 x i8], ptr @ff_golomb_vlc_len, i64 0, i64 %15
  %17 = load i8, ptr %16, align 1, !tbaa !27
  %18 = zext i8 %17 to i32
  %19 = add i32 %3, %18
  %. = tail call i32 @llvm.umin.i32(i32 %5, i32 %19)
  store i32 %., ptr %2, align 8, !tbaa !28
  %20 = getelementptr inbounds nuw [512 x i8], ptr @ff_ue_golomb_vlc_code, i64 0, i64 %15
  %21 = load i8, ptr %20, align 1, !tbaa !27
  %22 = zext i8 %21 to i32
  ret i32 %22
}